MODULE Linux x86 D3096ED481217FD4C16B29CD9BC208BA0 foo
INFO CODE_ID E562AC6DCD9DB72E
FUNC m c184 30 0 nsQueryInterfaceWithError::operator()(nsID const&, void**) const
PUBLIC m 2160 0 Public with space
PUBLIC m 2170 0 Public2_1
PUBLIC 2180 0 _fini
STACK CFI INIT 804c4b0 40 .cfa: $esp 4 + $eip: .cfa 4 - ^
STACK CFI 804c4b1 .cfa: $esp 8 + $ebp: .cfa 8 - ^
STACK CFI 804c4b2 .cfa: $esp
