MODULE Linux arm 3CBBBE087DD3833300000000000000000 xtrn.so
INFO CODE_ID 08BEBB3CD37D3383
FUNC 4c8 34 0 RegisterXTRNImage
FUNC 4fc c 0 UnregisterXTRNImage
PUBLIC 420 0 call_weak_fn
PUBLIC 445 0 __do_init
PUBLIC 47d 0 __do_fini
PUBLIC 509 0 __ThumbV7PILongThunk_UnregisterMagickInfo
PUBLIC 514 0 _init
PUBLIC 520 0 _fini
STACK CFI INIT 4c8 34 .cfa: sp 0 + .ra: lr
STACK CFI 4ca .cfa: sp 8 + .ra: .cfa -4 + ^ r7: .cfa -8 + ^
STACK CFI INIT 4fc c .cfa: sp 0 + .ra: lr
